target datalayout = "e-m:e-p270:32:32-p271:32:32-p272:64:64-i64:64-i128:128-f80:128-n8:16:32:64-S128"
target triple = "x86_64-pc-linux-gnu"

%struct.SDL_DriverSwitch_Context = type <{ ptr, ptr, i8, i8, i8, i8, i32, i8, [3 x i8], i32, i32, i8, i8, [6 x i8], i8, [3 x i8], i32, i8, i8, %struct.SwitchCommonOutputPacket_t, [64 x i8], i8, [7 x i8], i64, i8, i8, [2 x i8], i32, i8, i8, i8, [5 x i8], i64, i64, i64, i32, [4 x i8], i64, i64, i8, %struct.SwitchInputOnlyControllerStatePacket_t, %struct.SwitchSimpleStatePacket_t, %struct.SwitchStatePacket_t, i8, [2 x %struct.StickCalibrationData], [2 x %struct.StickExtents], [2 x %struct.StickExtents], %struct.IMUScaleData, [4 x i8] }>
%struct.SwitchCommonOutputPacket_t = type { i8, i8, [2 x %struct.SwitchRumbleData_t] }
%struct.SwitchRumbleData_t = type { [4 x i8] }
%struct.SwitchInputOnlyControllerStatePacket_t = type { [2 x i8], i8, [2 x i8], [2 x i8] }
%struct.SwitchSimpleStatePacket_t = type <{ [2 x i8], i8, [2 x i16], [2 x i16] }>
%struct.SwitchStatePacket_t = type { %struct.SwitchControllerStatePacket_t, [3 x %struct.anon] }
%struct.SwitchControllerStatePacket_t = type { i8, i8, [3 x i8], [3 x i8], [3 x i8], i8 }
%struct.anon = type { i16, i16, i16, i16, i16, i16 }
%struct.StickCalibrationData = type { [2 x %struct.anon.0] }
%struct.anon.0 = type { i16, i16, i16 }
%struct.StickExtents = type { [2 x %struct.anon.1] }
%struct.anon.1 = type { i16, i16 }
%struct.IMUScaleData = type { float, float, float, float, float, float }
%struct.SDL_HIDAPI_Device = type { ptr, ptr, ptr, ptr, i16, i16, i16, ptr, %struct.SDL_GUID, i32, i32, i32, i32, i16, i16, i8, i32, i32, i32, ptr, ptr, ptr, ptr, %struct.SDL_AtomicInt, i32, ptr, i8, i8, i8, ptr, i32, ptr, ptr }
%struct.SDL_GUID = type { [16 x i8] }
%struct.SDL_AtomicInt = type { i32 }

@.str.27 = private unnamed_addr constant [32 x i8] c"That operation is not supported\00", align 1

; Function Attrs: nounwind uwtable
define internal zeroext i1 @HIDAPI_DriverSwitch_SendPendingRumble(ptr noundef %0) #0 {
  %2 = alloca i1, align 1
  %3 = alloca ptr, align 8
  %4 = alloca i16, align 2
  %5 = alloca i16, align 2
  store ptr %0, ptr %3, align 8
  %6 = call i64 @SDL_GetTicks_REAL()
  %7 = load ptr, ptr %3, align 8
  %8 = getelementptr inbounds nuw %struct.SDL_DriverSwitch_Context, ptr %7, i32 0, i32 23
  %9 = load i64, ptr %8, align 8
  %10 = add i64 %9, 30
  %11 = icmp ult i64 %6, %10
  br i1 %11, label %12, label %13

12:                                               ; preds = %1
  store i1 true, ptr %2, align 1
  br label %47

13:                                               ; preds = %1
  %14 = load ptr, ptr %3, align 8
  %15 = getelementptr inbounds nuw %struct.SDL_DriverSwitch_Context, ptr %14, i32 0, i32 24
  %16 = load i8, ptr %15, align 8, !range !3, !noundef !4
  %17 = trunc i8 %16 to i1
  br i1 %17, label %18, label %36

18:                                               ; preds = %13
  call void @llvm.lifetime.start.p0(i64 2, ptr %4) #6
  %19 = load ptr, ptr %3, align 8
  %20 = getelementptr inbounds nuw %struct.SDL_DriverSwitch_Context, ptr %19, i32 0, i32 27
  %21 = load i32, ptr %20, align 4
  %22 = lshr i32 %21, 16
  %23 = trunc i32 %22 to i16
  store i16 %23, ptr %4, align 2
  call void @llvm.lifetime.start.p0(i64 2, ptr %5) #6
  %24 = load ptr, ptr %3, align 8
  %25 = getelementptr inbounds nuw %struct.SDL_DriverSwitch_Context, ptr %24, i32 0, i32 27
  %26 = load i32, ptr %25, align 4
  %27 = trunc i32 %26 to i16
  store i16 %27, ptr %5, align 2
  %28 = load ptr, ptr %3, align 8
  %29 = getelementptr inbounds nuw %struct.SDL_DriverSwitch_Context, ptr %28, i32 0, i32 24
  store i8 0, ptr %29, align 8
  %30 = load ptr, ptr %3, align 8
  %31 = getelementptr inbounds nuw %struct.SDL_DriverSwitch_Context, ptr %30, i32 0, i32 27
  store i32 0, ptr %31, align 4
  %32 = load ptr, ptr %3, align 8
  %33 = load i16, ptr %4, align 2
  %34 = load i16, ptr %5, align 2
  %35 = call zeroext i1 @HIDAPI_DriverSwitch_ActuallyRumbleJoystick(ptr noundef %32, i16 noundef zeroext %33, i16 noundef zeroext %34)
  store i1 %35, ptr %2, align 1
  call void @llvm.lifetime.end.p0(i64 2, ptr %5) #6
  call void @llvm.lifetime.end.p0(i64 2, ptr %4) #6
  br label %47

36:                                               ; preds = %13
  %37 = load ptr, ptr %3, align 8
  %38 = getelementptr inbounds nuw %struct.SDL_DriverSwitch_Context, ptr %37, i32 0, i32 25
  %39 = load i8, ptr %38, align 1, !range !3, !noundef !4
  %40 = trunc i8 %39 to i1
  br i1 %40, label %41, label %46

41:                                               ; preds = %36
  %42 = load ptr, ptr %3, align 8
  %43 = getelementptr inbounds nuw %struct.SDL_DriverSwitch_Context, ptr %42, i32 0, i32 25
  store i8 0, ptr %43, align 1
  %44 = load ptr, ptr %3, align 8
  %45 = call zeroext i1 @HIDAPI_DriverSwitch_ActuallyRumbleJoystick(ptr noundef %44, i16 noundef zeroext 0, i16 noundef zeroext 0)
  store i1 %45, ptr %2, align 1
  br label %47

46:                                               ; preds = %36
  store i1 true, ptr %2, align 1
  br label %47

47:                                               ; preds = %46, %41, %18, %12
  %48 = load i1, ptr %2, align 1
  ret i1 %48
}

; Function Attrs: nounwind uwtable
define internal zeroext i1 @HIDAPI_DriverSwitch_RumbleJoystick(ptr noundef %0, ptr noundef %1, i16 noundef zeroext %2, i16 noundef zeroext %3) #0 {
  %5 = alloca i1, align 1
  %6 = alloca ptr, align 8
  %7 = alloca ptr, align 8
  %8 = alloca i16, align 2
  %9 = alloca i16, align 2
  %10 = alloca ptr, align 8
  %11 = alloca i32, align 4
  %12 = alloca i32, align 4
  store ptr %0, ptr %6, align 8
  store ptr %1, ptr %7, align 8
  store i16 %2, ptr %8, align 2
  store i16 %3, ptr %9, align 2
  call void @llvm.lifetime.start.p0(i64 8, ptr %10) #6
  %13 = load ptr, ptr %6, align 8
  %14 = getelementptr inbounds nuw %struct.SDL_HIDAPI_Device, ptr %13, i32 0, i32 20
  %15 = load ptr, ptr %14, align 8
  store ptr %15, ptr %10, align 8
  %16 = load ptr, ptr %10, align 8
  %17 = getelementptr inbounds nuw %struct.SDL_DriverSwitch_Context, ptr %16, i32 0, i32 2
  %18 = load i8, ptr %17, align 8, !range !3, !noundef !4
  %19 = trunc i8 %18 to i1
  br i1 %19, label %20, label %22

20:                                               ; preds = %4
  %21 = call zeroext i1 (ptr, ...) @SDL_SetError_REAL(ptr noundef @.str.27)
  store i1 %21, ptr %5, align 1
  store i32 1, ptr %11, align 4
  br label %96

22:                                               ; preds = %4
  %23 = load ptr, ptr %6, align 8
  %24 = getelementptr inbounds nuw %struct.SDL_HIDAPI_Device, ptr %23, i32 0, i32 29
  %25 = load ptr, ptr %24, align 8
  %26 = icmp ne ptr %25, null
  br i1 %26, label %27, label %41

27:                                               ; preds = %22
  %28 = load ptr, ptr %10, align 8
  %29 = getelementptr inbounds nuw %struct.SDL_DriverSwitch_Context, ptr %28, i32 0, i32 10
  %30 = load i32, ptr %29, align 8
  %31 = icmp eq i32 %30, 1
  br i1 %31, label %32, label %33

32:                                               ; preds = %27
  store i16 0, ptr %9, align 2
  br label %40

33:                                               ; preds = %27
  %34 = load ptr, ptr %10, align 8
  %35 = getelementptr inbounds nuw %struct.SDL_DriverSwitch_Context, ptr %34, i32 0, i32 10
  %36 = load i32, ptr %35, align 8
  %37 = icmp eq i32 %36, 2
  br i1 %37, label %38, label %39

38:                                               ; preds = %33
  store i16 0, ptr %8, align 2
  br label %39

39:                                               ; preds = %38, %33
  br label %40

40:                                               ; preds = %39, %32
  br label %41

41:                                               ; preds = %40, %22
  %42 = load ptr, ptr %10, align 8
  %43 = getelementptr inbounds nuw %struct.SDL_DriverSwitch_Context, ptr %42, i32 0, i32 24
  %44 = load i8, ptr %43, align 8, !range !3, !noundef !4
  %45 = trunc i8 %44 to i1
  br i1 %45, label %46, label %51

46:                                               ; preds = %41
  %47 = load ptr, ptr %10, align 8
  %48 = call zeroext i1 @HIDAPI_DriverSwitch_SendPendingRumble(ptr noundef %47)
  br i1 %48, label %50, label %49

49:                                               ; preds = %46
  store i1 false, ptr %5, align 1
  store i32 1, ptr %11, align 4
  br label %96

50:                                               ; preds = %46
  br label %51

51:                                               ; preds = %50, %41
  %52 = call i64 @SDL_GetTicks_REAL()
  %53 = load ptr, ptr %10, align 8
  %54 = getelementptr inbounds nuw %struct.SDL_DriverSwitch_Context, ptr %53, i32 0, i32 23
  %55 = load i64, ptr %54, align 8
  %56 = add i64 %55, 30
  %57 = icmp ult i64 %52, %56
  br i1 %57, label %58, label %91

58:                                               ; preds = %51
  %59 = load i16, ptr %8, align 2
  %60 = zext i16 %59 to i32
  %61 = icmp ne i32 %60, 0
  br i1 %61, label %66, label %62

62:                                               ; preds = %58
  %63 = load i16, ptr %9, align 2
  %64 = zext i16 %63 to i32
  %65 = icmp ne i32 %64, 0
  br i1 %65, label %66, label %87

66:                                               ; preds = %62, %58
  call void @llvm.lifetime.start.p0(i64 4, ptr %12) #6
  %67 = load i16, ptr %8, align 2
  %68 = zext i16 %67 to i32
  %69 = shl i32 %68, 16
  %70 = load i16, ptr %9, align 2
  %71 = zext i16 %70 to i32
  %72 = or i32 %69, %71
  store i32 %72, ptr %12, align 4
  %73 = load i32, ptr %12, align 4
  %74 = load ptr, ptr %10, align 8
  %75 = getelementptr inbounds nuw %struct.SDL_DriverSwitch_Context, ptr %74, i32 0, i32 27
  %76 = load i32, ptr %75, align 4
  %77 = icmp ugt i32 %73, %76
  br i1 %77, label %78, label %82

78:                                               ; preds = %66
  %79 = load i32, ptr %12, align 4
  %80 = load ptr, ptr %10, align 8
  %81 = getelementptr inbounds nuw %struct.SDL_DriverSwitch_Context, ptr %80, i32 0, i32 27
  store i32 %79, ptr %81, align 4
  br label %82

82:                                               ; preds = %78, %66
  %83 = load ptr, ptr %10, align 8
  %84 = getelementptr inbounds nuw %struct.SDL_DriverSwitch_Context, ptr %83, i32 0, i32 24
  store i8 1, ptr %84, align 8
  %85 = load ptr, ptr %10, align 8
  %86 = getelementptr inbounds nuw %struct.SDL_DriverSwitch_Context, ptr %85, i32 0, i32 25
  store i8 0, ptr %86, align 1
  call void @llvm.lifetime.end.p0(i64 4, ptr %12) #6
  br label %90

87:                                               ; preds = %62
  %88 = load ptr, ptr %10, align 8
  %89 = getelementptr inbounds nuw %struct.SDL_DriverSwitch_Context, ptr %88, i32 0, i32 25
  store i8 1, ptr %89, align 1
  br label %90

90:                                               ; preds = %87, %82
  store i1 true, ptr %5, align 1
  store i32 1, ptr %11, align 4
  br label %96

91:                                               ; preds = %51
  %92 = load ptr, ptr %10, align 8
  %93 = load i16, ptr %8, align 2
  %94 = load i16, ptr %9, align 2
  %95 = call zeroext i1 @HIDAPI_DriverSwitch_ActuallyRumbleJoystick(ptr noundef %92, i16 noundef zeroext %93, i16 noundef zeroext %94)
  store i1 %95, ptr %5, align 1
  store i32 1, ptr %11, align 4
  br label %96

96:                                               ; preds = %91, %90, %49, %20
  call void @llvm.lifetime.end.p0(i64 8, ptr %10) #6
  %97 = load i1, ptr %5, align 1
  ret i1 %97
}