; Function Attrs: nounwind uwtable
define internal zeroext i1 @HIDAPI_DriverSwitch_RumbleJoystick(ptr noundef readonly captures(none) %0, ptr readnone captures(none) %1, i16 noundef zeroext %2, i16 noundef zeroext %3) #0 {
  %5 = getelementptr inbounds nuw i8, ptr %0, i64 112
  %6 = load ptr, ptr %5, align 8
  %7 = getelementptr inbounds nuw i8, ptr %6, i64 16
  %8 = load i8, ptr %7, align 8, !range !3, !noundef !4
  %9 = trunc nuw i8 %8 to i1
  br i1 %9, label %10, label %12

10:                                               ; preds = %4
  %11 = tail call zeroext i1 (ptr, ...) @SDL_SetError_REAL(ptr noundef nonnull @.str.27) #9
  br label %66

12:                                               ; preds = %4
  %13 = getelementptr inbounds nuw i8, ptr %0, i64 160
  %14 = load ptr, ptr %13, align 8
  %.not = icmp eq ptr %14, null
  br i1 %.not, label %19, label %15

15:                                               ; preds = %12
  %16 = getelementptr inbounds nuw i8, ptr %6, i64 32
  %17 = load i32, ptr %16, align 8
  switch i32 %17, label %.fold.split [
    i32 1, label %19
    i32 2, label %18
  ]

18:                                               ; preds = %15
  br label %19

.fold.split:                                      ; preds = %15
  br label %19

19:                                               ; preds = %15, %.fold.split, %18, %12
  %.025 = phi i16 [ %3, %18 ], [ %3, %12 ], [ 0, %15 ], [ %3, %.fold.split ]
  %.024 = phi i16 [ 0, %18 ], [ %2, %12 ], [ %2, %15 ], [ %2, %.fold.split ]
  %20 = getelementptr inbounds nuw i8, ptr %6, i64 144
  %21 = load i8, ptr %20, align 8, !range !3, !noundef !4
  %22 = trunc nuw i8 %21 to i1
  br i1 %22, label %23, label %HIDAPI_DriverSwitch_SendPendingRumble.exit.thread

23:                                               ; preds = %19
  %24 = tail call i64 @SDL_GetTicks_REAL() #9
  %25 = getelementptr inbounds nuw i8, ptr %6, i64 136
  %26 = load i64, ptr %25, align 8
  %27 = add i64 %26, 30
  %28 = icmp ult i64 %24, %27
  br i1 %28, label %HIDAPI_DriverSwitch_SendPendingRumble.exit.thread, label %29

29:                                               ; preds = %23
  %30 = load i8, ptr %20, align 8, !range !3, !noundef !4
  %31 = trunc nuw i8 %30 to i1
  br i1 %31, label %32, label %39

32:                                               ; preds = %29
  %33 = getelementptr inbounds nuw i8, ptr %6, i64 148
  %34 = load i32, ptr %33, align 4
  %35 = lshr i32 %34, 16
  %36 = trunc nuw i32 %35 to i16
  %37 = trunc i32 %34 to i16
  store i8 0, ptr %20, align 8
  store i32 0, ptr %33, align 4
  %38 = tail call fastcc zeroext i1 @HIDAPI_DriverSwitch_ActuallyRumbleJoystick(ptr noundef nonnull %6, i16 noundef zeroext %36, i16 noundef zeroext %37)
  br i1 %38, label %HIDAPI_DriverSwitch_SendPendingRumble.exit.thread, label %66

39:                                               ; preds = %29
  %40 = getelementptr inbounds nuw i8, ptr %6, i64 145
  %41 = load i8, ptr %40, align 1, !range !3, !noundef !4
  %42 = trunc nuw i8 %41 to i1
  br i1 %42, label %HIDAPI_DriverSwitch_SendPendingRumble.exit, label %HIDAPI_DriverSwitch_SendPendingRumble.exit.thread

HIDAPI_DriverSwitch_SendPendingRumble.exit:       ; preds = %39
  store i8 0, ptr %40, align 1
  %43 = tail call fastcc zeroext i1 @HIDAPI_DriverSwitch_ActuallyRumbleJoystick(ptr noundef nonnull %6, i16 noundef zeroext 0, i16 noundef zeroext 0)
  br i1 %43, label %HIDAPI_DriverSwitch_SendPendingRumble.exit.thread, label %66

HIDAPI_DriverSwitch_SendPendingRumble.exit.thread: ; preds = %39, %23, %32, %HIDAPI_DriverSwitch_SendPendingRumble.exit, %19
  %44 = tail call i64 @SDL_GetTicks_REAL() #9
  %45 = getelementptr inbounds nuw i8, ptr %6, i64 136
  %46 = load i64, ptr %45, align 8
  %47 = add i64 %46, 30
  %48 = icmp ult i64 %44, %47
  br i1 %48, label %49, label %64

49:                                               ; preds = %HIDAPI_DriverSwitch_SendPendingRumble.exit.thread
  %50 = or i16 %.024, %.025
  %or.cond.not = icmp eq i16 %50, 0
  br i1 %or.cond.not, label %62, label %51

51:                                               ; preds = %49
  %52 = zext i16 %.025 to i32
  %53 = zext i16 %.024 to i32
  %54 = shl nuw i32 %53, 16
  %55 = or disjoint i32 %54, %52
  %56 = getelementptr inbounds nuw i8, ptr %6, i64 148
  %57 = load i32, ptr %56, align 4
  %58 = icmp ugt i32 %55, %57
  br i1 %58, label %59, label %60

59:                                               ; preds = %51
  store i32 %55, ptr %56, align 4
  br label %60

60:                                               ; preds = %59, %51
  store i8 1, ptr %20, align 8
  %61 = getelementptr inbounds nuw i8, ptr %6, i64 145
  store i8 0, ptr %61, align 1
  br label %66

62:                                               ; preds = %49
  %63 = getelementptr inbounds nuw i8, ptr %6, i64 145
  store i8 1, ptr %63, align 1
  br label %66

64:                                               ; preds = %HIDAPI_DriverSwitch_SendPendingRumble.exit.thread
  %65 = tail call fastcc zeroext i1 @HIDAPI_DriverSwitch_ActuallyRumbleJoystick(ptr noundef nonnull %6, i16 noundef zeroext %.024, i16 noundef zeroext %.025)
  br label %66

66:                                               ; preds = %32, %60, %62, %HIDAPI_DriverSwitch_SendPendingRumble.exit, %64, %10
  %.0 = phi i1 [ %11, %10 ], [ %65, %64 ], [ false, %HIDAPI_DriverSwitch_SendPendingRumble.exit ], [ true, %62 ], [ true, %60 ], [ false, %32 ]
  ret i1 %.0
}